target datalayout = "e-m:e-p270:32:32-p271:32:32-p272:64:64-i64:64-i128:128-f80:128-n8:16:32:64-S128"
target triple = "x86_64-pc-linux-gnu"

%struct.archive_read_filter_vtable = type { ptr, ptr, ptr }
%struct.archive_read_filter = type { i64, ptr, ptr, ptr, ptr, ptr, ptr, i32, i32, i32, ptr, i64, ptr, i64, ptr, i64, ptr, i64, i8, i8, i8 }
%struct.archive_read = type { %struct.archive, ptr, i32, i64, i64, %struct.archive_read_client, [16 x %struct.archive_read_filter_bidder], ptr, i32, i64, i32, i32, [16 x %struct.archive_format_descriptor], ptr, ptr, ptr, %struct.anon }
%struct.archive = type { i32, i32, ptr, i32, ptr, i32, i32, ptr, %struct.archive_string, ptr, i32, i32, ptr, ptr, i64, i64, i64, i8, i64 }
%struct.archive_string = type { ptr, i64, i64 }
%struct.archive_read_client = type { ptr, ptr, ptr, ptr, ptr, ptr, i32, i32, i64, ptr }
%struct.archive_read_filter_bidder = type { ptr, ptr, ptr }
%struct.archive_format_descriptor = type { ptr, ptr, ptr, ptr, ptr, ptr, ptr, ptr, ptr, ptr, ptr }
%struct.anon = type { ptr, ptr, i32, ptr, ptr }
%struct.rpm = type { i64, i64, i64, [16 x i8], i32, i32 }

@.str = private unnamed_addr constant [4 x i8] c"rpm\00", align 1
@.str.2 = private unnamed_addr constant [28 x i8] c"Can't allocate data for rpm\00", align 1
@rpm_reader_vtable = internal constant %struct.archive_read_filter_vtable { ptr @rpm_filter_read, ptr @rpm_filter_close, ptr null }, align 8

; Function Attrs: nounwind uwtable
define internal i32 @rpm_bidder_init(ptr noundef %0) #0 {
  %2 = alloca i32, align 4
  %3 = alloca ptr, align 8
  %4 = alloca ptr, align 8
  %5 = alloca i32, align 4
  store ptr %0, ptr %3, align 8, !tbaa !13
  call void @llvm.lifetime.start.p0(i64 8, ptr %4) #8
  %6 = load ptr, ptr %3, align 8, !tbaa !13
  %7 = getelementptr inbounds nuw %struct.archive_read_filter, ptr %6, i32 0, i32 7
  store i32 8, ptr %7, align 8, !tbaa !20
  %8 = load ptr, ptr %3, align 8, !tbaa !13
  %9 = getelementptr inbounds nuw %struct.archive_read_filter, ptr %8, i32 0, i32 6
  store ptr @.str, ptr %9, align 8, !tbaa !24
  %10 = call noalias ptr @calloc(i64 noundef 1, i64 noundef 48) #10
  store ptr %10, ptr %4, align 8, !tbaa !25
  %11 = load ptr, ptr %4, align 8, !tbaa !25
  %12 = icmp eq ptr %11, null
  br i1 %12, label %13, label %18

13:                                               ; preds = %1
  %14 = load ptr, ptr %3, align 8, !tbaa !13
  %15 = getelementptr inbounds nuw %struct.archive_read_filter, ptr %14, i32 0, i32 3
  %16 = load ptr, ptr %15, align 8, !tbaa !27
  %17 = getelementptr inbounds nuw %struct.archive_read, ptr %16, i32 0, i32 0
  call void (ptr, i32, ptr, ...) @archive_set_error(ptr noundef %17, i32 noundef 12, ptr noundef @.str.2)
  store i32 -30, ptr %2, align 4
  store i32 1, ptr %5, align 4
  br label %26

18:                                               ; preds = %1
  %19 = load ptr, ptr %4, align 8, !tbaa !25
  %20 = load ptr, ptr %3, align 8, !tbaa !13
  %21 = getelementptr inbounds nuw %struct.archive_read_filter, ptr %20, i32 0, i32 5
  store ptr %19, ptr %21, align 8, !tbaa !28
  %22 = load ptr, ptr %4, align 8, !tbaa !25
  %23 = getelementptr inbounds nuw %struct.rpm, ptr %22, i32 0, i32 4
  store i32 0, ptr %23, align 8, !tbaa !29
  %24 = load ptr, ptr %3, align 8, !tbaa !13
  %25 = getelementptr inbounds nuw %struct.archive_read_filter, ptr %24, i32 0, i32 4
  store ptr @rpm_reader_vtable, ptr %25, align 8, !tbaa !31
  store i32 0, ptr %2, align 4
  store i32 1, ptr %5, align 4
  br label %26

26:                                               ; preds = %18, %13
  call void @llvm.lifetime.end.p0(i64 8, ptr %4) #8
  %27 = load i32, ptr %2, align 4
  ret i32 %27
}