; Function Attrs: nounwind uwtable
define internal range(i32 -30, 1) i32 @rpm_bidder_init(ptr noundef captures(none) initializes((48, 60)) %0) #0 {
  %2 = getelementptr inbounds nuw i8, ptr %0, i64 56
  store i32 8, ptr %2, align 8, !tbaa !7
  %3 = getelementptr inbounds nuw i8, ptr %0, i64 48
  store ptr @.str, ptr %3, align 8, !tbaa !17
  %4 = tail call noalias dereferenceable_or_null(48) ptr @calloc(i64 noundef 1, i64 noundef 48) #11
  %5 = icmp eq ptr %4, null
  br i1 %5, label %6, label %9

6:                                                ; preds = %1
  %7 = getelementptr inbounds nuw i8, ptr %0, i64 24
  %8 = load ptr, ptr %7, align 8, !tbaa !18
  tail call void (ptr, i32, ptr, ...) @archive_set_error(ptr noundef %8, i32 noundef 12, ptr noundef nonnull @.str.2) #10
  br label %12

9:                                                ; preds = %1
  %10 = getelementptr inbounds nuw i8, ptr %0, i64 40
  store ptr %4, ptr %10, align 8, !tbaa !19
  %11 = getelementptr inbounds nuw i8, ptr %0, i64 32
  store ptr @rpm_reader_vtable, ptr %11, align 8, !tbaa !20
  br label %12

12:                                               ; preds = %9, %6
  %.0 = phi i32 [ -30, %6 ], [ 0, %9 ]
  ret i32 %.0
}